target datalayout = "e-m:e-p270:32:32-p271:32:32-p272:64:64-i64:64-i128:128-f80:128-n8:16:32:64-S128"
target triple = "x86_64-pc-linux-gnu"

%struct.v3_ext_method = type { i32, i32, ptr, ptr, ptr, ptr, ptr, ptr, ptr, ptr, ptr, ptr, ptr, ptr }

@ossl_v3_crl_num = constant %struct.v3_ext_method { i32 88, i32 0, ptr @ASN1_INTEGER_it, ptr null, ptr null, ptr null, ptr null, ptr @i2s_ASN1_INTEGER, ptr null, ptr null, ptr null, ptr null, ptr null, ptr null }, align 8
@ossl_v3_delta_crl = constant %struct.v3_ext_method { i32 140, i32 0, ptr @ASN1_INTEGER_it, ptr null, ptr null, ptr null, ptr null, ptr @i2s_ASN1_INTEGER, ptr null, ptr null, ptr null, ptr null, ptr null, ptr null }, align 8
@ossl_v3_inhibit_anyp = constant %struct.v3_ext_method { i32 748, i32 0, ptr @ASN1_INTEGER_it, ptr null, ptr null, ptr null, ptr null, ptr @i2s_ASN1_INTEGER, ptr @s2i_asn1_int, ptr null, ptr null, ptr null, ptr null, ptr null }, align 8

declare ptr @ASN1_INTEGER_it() #0

declare ptr @i2s_ASN1_INTEGER(ptr noundef, ptr noundef) #0

; Function Attrs: nounwind uwtable
define internal ptr @s2i_asn1_int(ptr noundef %0, ptr noundef %1, ptr noundef %2) #1 {
  %4 = alloca ptr, align 8
  %5 = alloca ptr, align 8
  %6 = alloca ptr, align 8
  store ptr %0, ptr %4, align 8, !tbaa !3
  store ptr %1, ptr %5, align 8, !tbaa !8
  store ptr %2, ptr %6, align 8, !tbaa !10
  %7 = load ptr, ptr %4, align 8, !tbaa !3
  %8 = load ptr, ptr %6, align 8, !tbaa !10
  %9 = call ptr @s2i_ASN1_INTEGER(ptr noundef %7, ptr noundef %8)
  ret ptr %9
}

declare ptr @s2i_ASN1_INTEGER(ptr noundef, ptr noundef) #0


!llvm.module.flags = !{!0, !1, !2}

!0 = !{i32 1, !"wchar_size", i32 4}
!1 = !{i32 8, !"PIC Level", i32 2}
!2 = !{i32 7, !"uwtable", i32 2}
!3 = !{!4, !4, i64 0}
!4 = !{!"p1 _ZTS13v3_ext_method", !5, i64 0}
!5 = !{!"any pointer", !6, i64 0}
!6 = !{!"omnipotent char", !7, i64 0}
!7 = !{!"Simple C/C++ TBAA"}
!8 = !{!9, !9, i64 0}
!9 = !{!"p1 _ZTS10v3_ext_ctx", !5, i64 0}
!10 = !{!11, !11, i64 0}
!11 = !{!"p1 omnipotent char", !5, i64 0}
