; ModuleID = 'bench/openssl/original/v3_int.ll'
source_filename = "bench/openssl/original/v3_int.ll"
target datalayout = "e-m:e-p270:32:32-p271:32:32-p272:64:64-i64:64-i128:128-f80:128-n8:16:32:64-S128"
target triple = "x86_64-pc-linux-gnu"

%struct.v3_ext_method = type { i32, i32, ptr, ptr, ptr, ptr, ptr, ptr, ptr, ptr, ptr, ptr, ptr, ptr }

@ossl_v3_crl_num = local_unnamed_addr constant %struct.v3_ext_method { i32 88, i32 0, ptr @ASN1_INTEGER_it, ptr null, ptr null, ptr null, ptr null, ptr @i2s_ASN1_INTEGER, ptr null, ptr null, ptr null, ptr null, ptr null, ptr null }, align 8
@ossl_v3_delta_crl = local_unnamed_addr constant %struct.v3_ext_method { i32 140, i32 0, ptr @ASN1_INTEGER_it, ptr null, ptr null, ptr null, ptr null, ptr @i2s_ASN1_INTEGER, ptr null, ptr null, ptr null, ptr null, ptr null, ptr null }, align 8
@ossl_v3_inhibit_anyp = local_unnamed_addr constant %struct.v3_ext_method { i32 748, i32 0, ptr @ASN1_INTEGER_it, ptr null, ptr null, ptr null, ptr null, ptr @i2s_ASN1_INTEGER, ptr @s2i_asn1_int, ptr null, ptr null, ptr null, ptr null, ptr null }, align 8

declare ptr @ASN1_INTEGER_it() #0

declare ptr @i2s_ASN1_INTEGER(ptr noundef, ptr noundef) #0

; Function Attrs: nounwind uwtable
define internal ptr @s2i_asn1_int(ptr noundef %0, ptr readnone captures(none) %1, ptr noundef %2) #1 {
  %4 = tail call ptr @s2i_ASN1_INTEGER(ptr noundef %0, ptr noundef %2) #2
  ret ptr %4
}

declare ptr @s2i_ASN1_INTEGER(ptr noundef, ptr noundef) local_unnamed_addr #0


!llvm.module.flags = !{!0, !1, !2}

!0 = !{i32 1, !"wchar_size", i32 4}
!1 = !{i32 8, !"PIC Level", i32 2}
!2 = !{i32 7, !"uwtable", i32 2}
